target datalayout = "e-m:e-p270:32:32-p271:32:32-p272:64:64-i64:64-i128:128-f80:128-n8:16:32:64-S128"
target triple = "x86_64-pc-linux-gnu"

%struct.grpc_slice = type { ptr, %"union.grpc_slice::grpc_slice_data" }
%"union.grpc_slice::grpc_slice_data" = type { %"struct.grpc_slice::grpc_slice_data::grpc_slice_refcounted", [8 x i8] }
%"struct.grpc_slice::grpc_slice_data::grpc_slice_refcounted" = type { i64, ptr }
%struct.grpc_slice_buffer = type { ptr, ptr, i64, i64, i64, [6 x %struct.grpc_slice] }
%"struct.grpc_slice::grpc_slice_data::grpc_slice_inlined" = type { i8, [23 x i8] }

; Function Attrs: mustprogress uwtable
define void @_Z27grpc_slice_buffer_sub_firstP17grpc_slice_buffermm(ptr noundef %0, i64 noundef %1, i64 noundef %2) #4 {
  %4 = alloca ptr, align 8
  %5 = alloca i64, align 8
  %6 = alloca i64, align 8
  %7 = alloca %struct.grpc_slice, align 8
  %8 = alloca %struct.grpc_slice, align 8
  store ptr %0, ptr %4, align 8, !tbaa !10
  store i64 %1, ptr %5, align 8, !tbaa !16
  store i64 %2, ptr %6, align 8, !tbaa !16
  %9 = load ptr, ptr %4, align 8, !tbaa !10
  %10 = getelementptr inbounds nuw %struct.grpc_slice_buffer, ptr %9, i32 0, i32 1
  %11 = load ptr, ptr %10, align 8, !tbaa !18
  %12 = getelementptr inbounds %struct.grpc_slice, ptr %11, i64 0
  %13 = getelementptr inbounds nuw %struct.grpc_slice, ptr %12, i32 0, i32 0
  %14 = load ptr, ptr %13, align 8, !tbaa !19
  %15 = icmp ne ptr %14, null
  br i1 %15, label %16, label %24

16:                                               ; preds = %3
  %17 = load ptr, ptr %4, align 8, !tbaa !10
  %18 = getelementptr inbounds nuw %struct.grpc_slice_buffer, ptr %17, i32 0, i32 1
  %19 = load ptr, ptr %18, align 8, !tbaa !18
  %20 = getelementptr inbounds %struct.grpc_slice, ptr %19, i64 0
  %21 = getelementptr inbounds nuw %struct.grpc_slice, ptr %20, i32 0, i32 1
  %22 = getelementptr inbounds nuw %"struct.grpc_slice::grpc_slice_data::grpc_slice_refcounted", ptr %21, i32 0, i32 0
  %23 = load i64, ptr %22, align 8, !tbaa !22
  br label %33

24:                                               ; preds = %3
  %25 = load ptr, ptr %4, align 8, !tbaa !10
  %26 = getelementptr inbounds nuw %struct.grpc_slice_buffer, ptr %25, i32 0, i32 1
  %27 = load ptr, ptr %26, align 8, !tbaa !18
  %28 = getelementptr inbounds %struct.grpc_slice, ptr %27, i64 0
  %29 = getelementptr inbounds nuw %struct.grpc_slice, ptr %28, i32 0, i32 1
  %30 = getelementptr inbounds nuw %"struct.grpc_slice::grpc_slice_data::grpc_slice_inlined", ptr %29, i32 0, i32 0
  %31 = load i8, ptr %30, align 8, !tbaa !22
  %32 = zext i8 %31 to i64
  br label %33

33:                                               ; preds = %24, %16
  %34 = phi i64 [ %23, %16 ], [ %32, %24 ]
  %35 = load ptr, ptr %4, align 8, !tbaa !10
  %36 = getelementptr inbounds nuw %struct.grpc_slice_buffer, ptr %35, i32 0, i32 4
  %37 = load i64, ptr %36, align 8, !tbaa !23
  %38 = sub i64 %37, %34
  store i64 %38, ptr %36, align 8, !tbaa !23
  call void @llvm.lifetime.start.p0(i64 32, ptr %7) #3
  %39 = load ptr, ptr %4, align 8, !tbaa !10
  %40 = getelementptr inbounds nuw %struct.grpc_slice_buffer, ptr %39, i32 0, i32 1
  %41 = load ptr, ptr %40, align 8, !tbaa !18
  %42 = getelementptr inbounds %struct.grpc_slice, ptr %41, i64 0
  call void @llvm.memcpy.p0.p0.i64(ptr align 8 %8, ptr align 8 %42, i64 32, i1 false), !tbaa.struct !24
  %43 = load i64, ptr %5, align 8, !tbaa !16
  %44 = load i64, ptr %6, align 8, !tbaa !16
  call void @grpc_slice_sub_no_ref(ptr dead_on_unwind writable sret(%struct.grpc_slice) align 8 %7, ptr noundef byval(%struct.grpc_slice) align 8 %8, i64 noundef %43, i64 noundef %44)
  %45 = load ptr, ptr %4, align 8, !tbaa !10
  %46 = getelementptr inbounds nuw %struct.grpc_slice_buffer, ptr %45, i32 0, i32 1
  %47 = load ptr, ptr %46, align 8, !tbaa !18
  %48 = getelementptr inbounds %struct.grpc_slice, ptr %47, i64 0
  call void @llvm.memcpy.p0.p0.i64(ptr align 8 %48, ptr align 8 %7, i64 32, i1 false), !tbaa.struct !24
  call void @llvm.lifetime.end.p0(i64 32, ptr %7) #3
  %49 = load i64, ptr %6, align 8, !tbaa !16
  %50 = load i64, ptr %5, align 8, !tbaa !16
  %51 = sub i64 %49, %50
  %52 = load ptr, ptr %4, align 8, !tbaa !10
  %53 = getelementptr inbounds nuw %struct.grpc_slice_buffer, ptr %52, i32 0, i32 4
  %54 = load i64, ptr %53, align 8, !tbaa !23
  %55 = add i64 %54, %51
  store i64 %55, ptr %53, align 8, !tbaa !23
  ret void
}