; Function Attrs: mustprogress uwtable
define void @_Z27grpc_slice_buffer_sub_firstP17grpc_slice_buffermm(ptr noundef captures(none) %0, i64 noundef %1, i64 noundef %2) local_unnamed_addr #3 {
  %4 = alloca %struct.grpc_slice, align 8
  %5 = getelementptr inbounds nuw i8, ptr %0, i64 8
  %6 = load ptr, ptr %5, align 8, !tbaa !17
  %7 = load ptr, ptr %6, align 8, !tbaa !18
  %.not = icmp eq ptr %7, null
  %8 = getelementptr inbounds nuw i8, ptr %6, i64 8
  br i1 %.not, label %11, label %9

9:                                                ; preds = %3
  %10 = load i64, ptr %8, align 8, !tbaa !9
  br label %14

11:                                               ; preds = %3
  %12 = load i8, ptr %8, align 8, !tbaa !9
  %13 = zext i8 %12 to i64
  br label %14

14:                                               ; preds = %11, %9
  %15 = phi i64 [ %10, %9 ], [ %13, %11 ]
  %16 = getelementptr inbounds nuw i8, ptr %0, i64 32
  %17 = load i64, ptr %16, align 8, !tbaa !20
  %18 = sub i64 %17, %15
  store i64 %18, ptr %16, align 8, !tbaa !20
  call void @llvm.lifetime.start.p0(i64 32, ptr nonnull %4) #22
  call void @grpc_slice_sub_no_ref(ptr dead_on_unwind nonnull writable sret(%struct.grpc_slice) align 8 %4, ptr noundef nonnull byval(%struct.grpc_slice) align 8 %6, i64 noundef %1, i64 noundef %2)
  %19 = load ptr, ptr %5, align 8, !tbaa !17
  call void @llvm.memcpy.p0.p0.i64(ptr noundef nonnull align 8 dereferenceable(32) %19, ptr noundef nonnull align 8 dereferenceable(32) %4, i64 32, i1 false), !tbaa.struct !3
  call void @llvm.lifetime.end.p0(i64 32, ptr nonnull %4) #22
  %20 = sub i64 %2, %1
  %21 = load i64, ptr %16, align 8, !tbaa !20
  %22 = add i64 %20, %21
  store i64 %22, ptr %16, align 8, !tbaa !20
  ret void
}